target datalayout = "e-m:e-p270:32:32-p271:32:32-p272:64:64-i64:64-i128:128-f80:128-n8:16:32:64-S128"
target triple = "x86_64-pc-linux-gnu"

%struct._zval_struct = type { %union._zend_value, %union.anon, %union.anon.2 }
%union._zend_value = type { i64 }
%union.anon = type { i32 }
%union.anon.2 = type { i32 }
%struct._zend_refcounted_h = type { i32, %union.anon.3 }
%union.anon.3 = type { i32 }
%struct._zend_string = type { %struct._zend_refcounted_h, i64, i64, [1 x i8] }
%struct._xmlAttr = type { ptr, i32, ptr, ptr, ptr, ptr, ptr, ptr, ptr, ptr, i32, ptr }

@xmlFree = external global ptr, align 8
@.str.3 = private unnamed_addr constant [3 x i8] c"id\00", align 1

; Function Attrs: nounwind uwtable
define internal void @php_set_attribute_id(ptr noundef %0, i1 noundef zeroext %1) #0 {
  %3 = alloca ptr, align 8
  %4 = alloca i8, align 1
  %5 = alloca ptr, align 8
  store ptr %0, ptr %3, align 8
  %6 = zext i1 %1 to i8
  store i8 %6, ptr %4, align 1
  %7 = load i8, ptr %4, align 1
  %8 = trunc i8 %7 to i1
  %9 = zext i1 %8 to i32
  %10 = icmp eq i32 %9, 1
  br i1 %10, label %11, label %36

11:                                               ; preds = %2
  %12 = load ptr, ptr %3, align 8
  %13 = getelementptr inbounds %struct._xmlAttr, ptr %12, i32 0, i32 10
  %14 = load i32, ptr %13, align 8
  %15 = icmp ne i32 %14, 2
  br i1 %15, label %16, label %36

16:                                               ; preds = %11
  %17 = load ptr, ptr %3, align 8
  %18 = getelementptr inbounds %struct._xmlAttr, ptr %17, i32 0, i32 8
  %19 = load ptr, ptr %18, align 8
  %20 = load ptr, ptr %3, align 8
  %21 = getelementptr inbounds %struct._xmlAttr, ptr %20, i32 0, i32 3
  %22 = load ptr, ptr %21, align 8
  %23 = call ptr @xmlNodeListGetString(ptr noundef %19, ptr noundef %22, i32 noundef 1)
  store ptr %23, ptr %5, align 8
  %24 = load ptr, ptr %5, align 8
  %25 = icmp ne ptr %24, null
  br i1 %25, label %26, label %35

26:                                               ; preds = %16
  %27 = load ptr, ptr %3, align 8
  %28 = getelementptr inbounds %struct._xmlAttr, ptr %27, i32 0, i32 8
  %29 = load ptr, ptr %28, align 8
  %30 = load ptr, ptr %5, align 8
  %31 = load ptr, ptr %3, align 8
  %32 = call ptr @xmlAddID(ptr noundef null, ptr noundef %29, ptr noundef %30, ptr noundef %31)
  %33 = load ptr, ptr @xmlFree, align 8
  %34 = load ptr, ptr %5, align 8
  call void %33(ptr noundef %34)
  br label %35

35:                                               ; preds = %26, %16
  br label %55

36:                                               ; preds = %11, %2
  %37 = load i8, ptr %4, align 1
  %38 = trunc i8 %37 to i1
  %39 = zext i1 %38 to i32
  %40 = icmp eq i32 %39, 0
  br i1 %40, label %41, label %54

41:                                               ; preds = %36
  %42 = load ptr, ptr %3, align 8
  %43 = getelementptr inbounds %struct._xmlAttr, ptr %42, i32 0, i32 10
  %44 = load i32, ptr %43, align 8
  %45 = icmp eq i32 %44, 2
  br i1 %45, label %46, label %54

46:                                               ; preds = %41
  %47 = load ptr, ptr %3, align 8
  %48 = getelementptr inbounds %struct._xmlAttr, ptr %47, i32 0, i32 8
  %49 = load ptr, ptr %48, align 8
  %50 = load ptr, ptr %3, align 8
  %51 = call i32 @xmlRemoveID(ptr noundef %49, ptr noundef %50)
  %52 = load ptr, ptr %3, align 8
  %53 = getelementptr inbounds %struct._xmlAttr, ptr %52, i32 0, i32 10
  store i32 0, ptr %53, align 8
  br label %54

54:                                               ; preds = %46, %41, %36
  br label %55

55:                                               ; preds = %54, %35
  ret void
}

; Function Attrs: nounwind uwtable
define internal ptr @dom_element_reflected_attribute_write(ptr noundef %0, ptr noundef %1, ptr noundef %2) #0 {
  %4 = alloca ptr, align 8
  %5 = alloca ptr, align 8
  %6 = alloca ptr, align 8
  %7 = alloca ptr, align 8
  %8 = alloca ptr, align 8
  store ptr %0, ptr %5, align 8
  store ptr %1, ptr %6, align 8
  store ptr %2, ptr %7, align 8
  %9 = load ptr, ptr %5, align 8
  %10 = call ptr @dom_object_get_node(ptr noundef %9)
  store ptr %10, ptr %8, align 8
  %11 = load ptr, ptr %8, align 8
  %12 = icmp eq ptr %11, null
  br i1 %12, label %13, label %14

13:                                               ; preds = %3
  call void @php_dom_throw_error(i32 noundef 11, i32 noundef 1)
  store ptr null, ptr %4, align 8
  br label %23

14:                                               ; preds = %3
  %15 = load ptr, ptr %8, align 8
  %16 = load ptr, ptr %7, align 8
  %17 = load ptr, ptr %6, align 8
  %18 = getelementptr inbounds %struct._zval_struct, ptr %17, i32 0, i32 0
  %19 = load ptr, ptr %18, align 8
  %20 = getelementptr inbounds %struct._zend_string, ptr %19, i32 0, i32 3
  %21 = getelementptr inbounds [1 x i8], ptr %20, i64 0, i64 0
  %22 = call ptr @xmlSetNsProp(ptr noundef %15, ptr noundef null, ptr noundef %16, ptr noundef %21)
  store ptr %22, ptr %4, align 8
  br label %23

23:                                               ; preds = %14, %13
  %24 = load ptr, ptr %4, align 8
  ret ptr %24
}

; Function Attrs: nounwind uwtable
define hidden i32 @dom_element_id_write(ptr noundef %0, ptr noundef %1) #0 {
  %3 = alloca i32, align 4
  %4 = alloca ptr, align 8
  %5 = alloca ptr, align 8
  %6 = alloca ptr, align 8
  store ptr %0, ptr %4, align 8
  store ptr %1, ptr %5, align 8
  %7 = load ptr, ptr %4, align 8
  %8 = load ptr, ptr %5, align 8
  %9 = call ptr @dom_element_reflected_attribute_write(ptr noundef %7, ptr noundef %8, ptr noundef @.str.3)
  store ptr %9, ptr %6, align 8
  %10 = load ptr, ptr %6, align 8
  %11 = icmp ne ptr %10, null
  br i1 %11, label %13, label %12

12:                                               ; preds = %2
  store i32 -1, ptr %3, align 4
  br label %15

13:                                               ; preds = %2
  %14 = load ptr, ptr %6, align 8
  call void @php_set_attribute_id(ptr noundef %14, i1 noundef zeroext true)
  store i32 0, ptr %3, align 4
  br label %15

15:                                               ; preds = %13, %12
  %16 = load i32, ptr %3, align 4
  ret i32 %16
}