; Function Attrs: nounwind uwtable
define hidden noundef i32 @dom_element_id_write(ptr noundef %0, ptr nocapture noundef readonly %1) local_unnamed_addr #0 {
  %3 = tail call ptr @dom_object_get_node(ptr noundef %0) #8
  %4 = icmp eq ptr %3, null
  br i1 %4, label %dom_element_reflected_attribute_write.exit.thread, label %dom_element_reflected_attribute_write.exit

dom_element_reflected_attribute_write.exit.thread: ; preds = %2
  tail call void @php_dom_throw_error(i32 noundef 11, i32 noundef 1) #8
  br label %php_set_attribute_id.exit

dom_element_reflected_attribute_write.exit:       ; preds = %2
  %5 = load ptr, ptr %1, align 8
  %6 = getelementptr inbounds i8, ptr %5, i64 24
  %7 = tail call ptr @xmlSetNsProp(ptr noundef nonnull %3, ptr noundef null, ptr noundef nonnull @.str.3, ptr noundef nonnull %6) #8
  %.not = icmp eq ptr %7, null
  br i1 %.not, label %php_set_attribute_id.exit, label %8

8:                                                ; preds = %dom_element_reflected_attribute_write.exit
  %9 = getelementptr inbounds i8, ptr %7, i64 80
  %10 = load i32, ptr %9, align 8
  %.not.i = icmp eq i32 %10, 2
  br i1 %.not.i, label %php_set_attribute_id.exit, label %11

11:                                               ; preds = %8
  %12 = getelementptr inbounds i8, ptr %7, i64 64
  %13 = load ptr, ptr %12, align 8
  %14 = getelementptr inbounds i8, ptr %7, i64 24
  %15 = load ptr, ptr %14, align 8
  %16 = tail call ptr @xmlNodeListGetString(ptr noundef %13, ptr noundef %15, i32 noundef 1) #8
  %.not13.i = icmp eq ptr %16, null
  br i1 %.not13.i, label %php_set_attribute_id.exit, label %17

17:                                               ; preds = %11
  %18 = load ptr, ptr %12, align 8
  %19 = tail call ptr @xmlAddID(ptr noundef null, ptr noundef %18, ptr noundef nonnull %16, ptr noundef nonnull %7) #8
  %20 = load ptr, ptr @xmlFree, align 8
  tail call void %20(ptr noundef nonnull %16) #8
  br label %php_set_attribute_id.exit

php_set_attribute_id.exit:                        ; preds = %17, %11, %8, %dom_element_reflected_attribute_write.exit.thread, %dom_element_reflected_attribute_write.exit
  %.0 = phi i32 [ -1, %dom_element_reflected_attribute_write.exit ], [ -1, %dom_element_reflected_attribute_write.exit.thread ], [ 0, %8 ], [ 0, %11 ], [ 0, %17 ]
  ret i32 %.0
}